target datalayout = "e-m:e-p270:32:32-p271:32:32-p272:64:64-i64:64-i128:128-f80:128-n8:16:32:64-S128"
target triple = "x86_64-pc-linux-gnu"

%"class.zmq::thread_t" = type { ptr, ptr, [16 x i8], i8, i64, i32, i32, %"class.std::set" }
%"class.std::set" = type { %"class.std::_Rb_tree" }
%"class.std::_Rb_tree" = type { %"struct.std::_Rb_tree<int, int, std::_Identity<int>, std::less<int>>::_Rb_tree_impl" }
%"struct.std::_Rb_tree<int, int, std::_Identity<int>, std::less<int>>::_Rb_tree_impl" = type { [8 x i8], %"struct.std::_Rb_tree_header" }
%"struct.std::_Rb_tree_header" = type { %"struct.std::_Rb_tree_node_base", i64 }
%"struct.std::_Rb_tree_node_base" = type { i32, ptr, ptr, ptr }
%struct.__sigset_t = type { [16 x i64] }

@stderr = external global ptr, align 8
@.str = private unnamed_addr constant [12 x i8] c"%s (%s:%d)\0A\00", align 1
@.str.1 = private unnamed_addr constant [106 x i8] c"generated/home/dtcxzyw/WorkSpace/Projects/compilers/llvm-opt-benchmark/bench/libzmq/libzmq/src/thread.cpp\00", align 1

; Function Attrs: mustprogress nounwind uwtable
define void @_ZN3zmq8thread_t15applyThreadNameEv(ptr noundef nonnull align 8 dereferenceable(104) %0) #0 align 2 {
  %2 = alloca ptr, align 8
  %3 = alloca i32, align 4
  %4 = alloca i32, align 4
  store ptr %0, ptr %2, align 8, !tbaa !3
  %5 = load ptr, ptr %2, align 8
  %6 = getelementptr inbounds nuw %"class.zmq::thread_t", ptr %5, i32 0, i32 2
  %7 = getelementptr inbounds [16 x i8], ptr %6, i64 0, i64 0
  %8 = load i8, ptr %7, align 8, !tbaa !49
  %9 = icmp ne i8 %8, 0
  br i1 %9, label %11, label %10

10:                                               ; preds = %1
  br label %22

11:                                               ; preds = %1
  call void @llvm.lifetime.start.p0(i64 4, ptr %3) #15
  %12 = call i64 @pthread_self() #16
  %13 = getelementptr inbounds nuw %"class.zmq::thread_t", ptr %5, i32 0, i32 2
  %14 = getelementptr inbounds [16 x i8], ptr %13, i64 0, i64 0
  %15 = call i32 @pthread_setname_np(i64 noundef %12, ptr noundef %14) #15
  store i32 %15, ptr %3, align 4, !tbaa !29
  %16 = load i32, ptr %3, align 4, !tbaa !29
  %17 = icmp ne i32 %16, 0
  br i1 %17, label %18, label %19

18:                                               ; preds = %11
  store i32 1, ptr %4, align 4
  br label %20

19:                                               ; preds = %11
  store i32 0, ptr %4, align 4
  br label %20

20:                                               ; preds = %19, %18
  call void @llvm.lifetime.end.p0(i64 4, ptr %3) #15
  %21 = load i32, ptr %4, align 4
  switch i32 %21, label %23 [
    i32 0, label %22
    i32 1, label %22
  ]

22:                                               ; preds = %10, %20, %20
  ret void

23:                                               ; preds = %20
  unreachable
}

; Function Attrs: mustprogress uwtable
define internal noundef ptr @_ZL14thread_routinePv(ptr noundef %0) #1 {
  %2 = alloca ptr, align 8
  %3 = alloca %struct.__sigset_t, align 8
  %4 = alloca i32, align 4
  %5 = alloca ptr, align 8
  %6 = alloca ptr, align 8
  %7 = alloca ptr, align 8
  store ptr %0, ptr %2, align 8, !tbaa !24
  call void @llvm.lifetime.start.p0(i64 128, ptr %3) #15
  call void @llvm.lifetime.start.p0(i64 4, ptr %4) #15
  %8 = call i32 @sigfillset(ptr noundef %3) #15
  store i32 %8, ptr %4, align 4, !tbaa !29
  br label %9

9:                                                ; preds = %1
  %10 = load i32, ptr %4, align 4, !tbaa !29
  %11 = icmp eq i32 %10, 0
  %12 = xor i1 %11, true
  %13 = zext i1 %12 to i64
  %14 = call i64 @llvm.expect.i64(i64 %13, i64 0)
  %15 = icmp ne i64 %14, 0
  br i1 %15, label %16, label %26

16:                                               ; preds = %9
  call void @llvm.lifetime.start.p0(i64 8, ptr %5) #15
  %17 = call ptr @__errno_location() #16
  %18 = load i32, ptr %17, align 4, !tbaa !29
  %19 = call ptr @strerror(i32 noundef %18) #15
  store ptr %19, ptr %5, align 8, !tbaa !25
  %20 = load ptr, ptr @stderr, align 8, !tbaa !30
  %21 = load ptr, ptr %5, align 8, !tbaa !25
  %22 = call i32 (ptr, ptr, ...) @fprintf(ptr noundef %20, ptr noundef @.str, ptr noundef %21, ptr noundef @.str.1, i32 noundef 222) #15
  %23 = load ptr, ptr @stderr, align 8, !tbaa !30
  %24 = call i32 @fflush(ptr noundef %23)
  %25 = load ptr, ptr %5, align 8, !tbaa !25
  call void @_ZN3zmq9zmq_abortEPKc(ptr noundef %25)
  call void @llvm.lifetime.end.p0(i64 8, ptr %5) #15
  br label %26

26:                                               ; preds = %16, %9
  br label %27

27:                                               ; preds = %26
  br label %28

28:                                               ; preds = %27
  %29 = call i32 @pthread_sigmask(i32 noundef 0, ptr noundef %3, ptr noundef null) #15
  store i32 %29, ptr %4, align 4, !tbaa !29
  br label %30

30:                                               ; preds = %28
  %31 = load i32, ptr %4, align 4, !tbaa !29
  %32 = sext i32 %31 to i64
  %33 = call i64 @llvm.expect.i64(i64 %32, i64 0)
  %34 = icmp ne i64 %33, 0
  br i1 %34, label %35, label %44

35:                                               ; preds = %30
  call void @llvm.lifetime.start.p0(i64 8, ptr %6) #15
  %36 = load i32, ptr %4, align 4, !tbaa !29
  %37 = call ptr @strerror(i32 noundef %36) #15
  store ptr %37, ptr %6, align 8, !tbaa !25
  %38 = load ptr, ptr @stderr, align 8, !tbaa !30
  %39 = load ptr, ptr %6, align 8, !tbaa !25
  %40 = call i32 (ptr, ptr, ...) @fprintf(ptr noundef %38, ptr noundef @.str, ptr noundef %39, ptr noundef @.str.1, i32 noundef 224) #15
  %41 = load ptr, ptr @stderr, align 8, !tbaa !30
  %42 = call i32 @fflush(ptr noundef %41)
  %43 = load ptr, ptr %6, align 8, !tbaa !25
  call void @_ZN3zmq9zmq_abortEPKc(ptr noundef %43)
  call void @llvm.lifetime.end.p0(i64 8, ptr %6) #15
  br label %44

44:                                               ; preds = %35, %30
  br label %45

45:                                               ; preds = %44
  br label %46

46:                                               ; preds = %45
  call void @llvm.lifetime.start.p0(i64 8, ptr %7) #15
  %47 = load ptr, ptr %2, align 8, !tbaa !24
  store ptr %47, ptr %7, align 8, !tbaa !3
  %48 = load ptr, ptr %7, align 8, !tbaa !3
  call void @_ZN3zmq8thread_t25applySchedulingParametersEv(ptr noundef nonnull align 8 dereferenceable(104) %48)
  %49 = load ptr, ptr %7, align 8, !tbaa !3
  call void @_ZN3zmq8thread_t15applyThreadNameEv(ptr noundef nonnull align 8 dereferenceable(104) %49)
  %50 = load ptr, ptr %7, align 8, !tbaa !3
  %51 = getelementptr inbounds nuw %"class.zmq::thread_t", ptr %50, i32 0, i32 0
  %52 = load ptr, ptr %51, align 8, !tbaa !27
  %53 = load ptr, ptr %7, align 8, !tbaa !3
  %54 = getelementptr inbounds nuw %"class.zmq::thread_t", ptr %53, i32 0, i32 1
  %55 = load ptr, ptr %54, align 8, !tbaa !28
  call void %52(ptr noundef %55)
  call void @llvm.lifetime.end.p0(i64 8, ptr %7) #15
  call void @llvm.lifetime.end.p0(i64 4, ptr %4) #15
  call void @llvm.lifetime.end.p0(i64 128, ptr %3) #15
  ret ptr null
}