; Function Attrs: mustprogress uwtable
define internal noundef ptr @_ZL14thread_routinePv(ptr noundef %0) #1 {
  %2 = alloca %struct.__sigset_t, align 8
  call void @llvm.lifetime.start.p0(i64 128, ptr nonnull %2) #16
  %3 = call i32 @sigfillset(ptr noundef nonnull %2) #16
  %.not = icmp eq i32 %3, 0
  br i1 %.not, label %12, label %4, !prof !24

4:                                                ; preds = %1
  %5 = tail call ptr @__errno_location() #18
  %6 = load i32, ptr %5, align 4, !tbaa !27
  %7 = call ptr @strerror(i32 noundef %6) #16
  %8 = load ptr, ptr @stderr, align 8, !tbaa !25
  %9 = call i32 (ptr, ptr, ...) @fprintf(ptr noundef %8, ptr noundef nonnull @.str, ptr noundef %7, ptr noundef nonnull @.str.1, i32 noundef 222) #17
  %10 = load ptr, ptr @stderr, align 8, !tbaa !25
  %11 = call i32 @fflush(ptr noundef %10)
  call void @_ZN3zmq9zmq_abortEPKc(ptr noundef %7)
  br label %12

12:                                               ; preds = %4, %1
  %13 = call i32 @pthread_sigmask(i32 noundef 0, ptr noundef nonnull %2, ptr noundef null) #16
  %.not11 = icmp eq i32 %13, 0
  br i1 %.not11, label %20, label %14, !prof !24

14:                                               ; preds = %12
  %15 = call ptr @strerror(i32 noundef %13) #16
  %16 = load ptr, ptr @stderr, align 8, !tbaa !25
  %17 = call i32 (ptr, ptr, ...) @fprintf(ptr noundef %16, ptr noundef nonnull @.str, ptr noundef %15, ptr noundef nonnull @.str.1, i32 noundef 224) #17
  %18 = load ptr, ptr @stderr, align 8, !tbaa !25
  %19 = call i32 @fflush(ptr noundef %18)
  call void @_ZN3zmq9zmq_abortEPKc(ptr noundef %15)
  br label %20

20:                                               ; preds = %14, %12
  call void @_ZN3zmq8thread_t25applySchedulingParametersEv(ptr noundef nonnull align 8 dereferenceable(104) %0)
  %21 = getelementptr inbounds nuw i8, ptr %0, i64 16
  %22 = load i8, ptr %21, align 8, !tbaa !28
  %.not.i = icmp eq i8 %22, 0
  br i1 %.not.i, label %_ZN3zmq8thread_t15applyThreadNameEv.exit, label %23

23:                                               ; preds = %20
  %24 = tail call i64 @pthread_self() #18
  %25 = call i32 @pthread_setname_np(i64 noundef %24, ptr noundef nonnull %21) #16
  br label %_ZN3zmq8thread_t15applyThreadNameEv.exit

_ZN3zmq8thread_t15applyThreadNameEv.exit:         ; preds = %20, %23
  %26 = load ptr, ptr %0, align 8, !tbaa !22
  %27 = getelementptr inbounds nuw i8, ptr %0, i64 8
  %28 = load ptr, ptr %27, align 8, !tbaa !23
  call void %26(ptr noundef %28)
  call void @llvm.lifetime.end.p0(i64 128, ptr nonnull %2) #16
  ret ptr null
}